; Function Attrs: mustprogress nounwind uwtable
define hidden void @_ZN8ZWorkers3runEP16ZRestartableTask(ptr noundef nonnull align 8 dereferenceable(184) %0, ptr noundef %1) local_unnamed_addr #0 align 2 {
  tail call void @_ZN8ZWorkers3runEP5ZTask(ptr noundef nonnull align 8 dereferenceable(184) %0, ptr noundef %1)
  %3 = getelementptr inbounds i8, ptr %0, i64 128
  %4 = tail call i32 @pthread_mutex_lock(ptr noundef nonnull %3) #8
  %5 = getelementptr inbounds i8, ptr %0, i64 168
  %6 = load volatile i32, ptr %5, align 8
  %7 = icmp eq i32 %6, 0
  br i1 %7, label %._crit_edge, label %_ZN7ZLockerI5ZLockED2Ev.exit.lr.ph

_ZN7ZLockerI5ZLockED2Ev.exit.lr.ph:               ; preds = %2
  %8 = getelementptr inbounds i8, ptr %0, i64 32
  br label %_ZN7ZLockerI5ZLockED2Ev.exit

_ZN7ZLockerI5ZLockED2Ev.exit:                     ; preds = %_ZN7ZLockerI5ZLockED2Ev.exit.lr.ph, %_ZN7ZLockerI5ZLockED2Ev.exit
  %9 = load volatile i32, ptr %5, align 8
  %10 = tail call noundef i32 @_ZN13WorkerThreads18set_active_workersEj(ptr noundef nonnull align 8 dereferenceable(120) %0, i32 noundef %9) #8
  %11 = load i32, ptr %8, align 8
  %12 = load ptr, ptr %1, align 8
  %13 = getelementptr inbounds i8, ptr %12, i64 8
  %14 = load ptr, ptr %13, align 8
  tail call void %14(ptr noundef nonnull align 8 dereferenceable(40) %1, i32 noundef %11) #8
  store volatile i32 0, ptr %5, align 8
  %15 = tail call i32 @pthread_mutex_unlock(ptr noundef nonnull %3) #8
  tail call void @_ZN8ZWorkers3runEP5ZTask(ptr noundef nonnull align 8 dereferenceable(184) %0, ptr noundef nonnull %1)
  %16 = tail call i32 @pthread_mutex_lock(ptr noundef nonnull %3) #8
  %17 = load volatile i32, ptr %5, align 8
  %18 = icmp eq i32 %17, 0
  br i1 %18, label %._crit_edge, label %_ZN7ZLockerI5ZLockED2Ev.exit

._crit_edge:                                      ; preds = %_ZN7ZLockerI5ZLockED2Ev.exit, %2
  %19 = tail call i32 @pthread_mutex_unlock(ptr noundef nonnull %3) #8
  ret void
}